target datalayout = "e-m:e-p270:32:32-p271:32:32-p272:64:64-i64:64-i128:128-f80:128-n8:16:32:64-S128"
target triple = "x86_64-pc-linux-gnu"

%struct.evthread_lock_callbacks = type { i32, i32, ptr, ptr, ptr, ptr }
%struct.ev_token_bucket = type { i64, i64, i32 }
%struct.ev_token_bucket_cfg = type { i64, i64, i64, i64, %struct.timeval, i32 }
%struct.timeval = type { i64, i64 }
%struct.bufferevent_private = type { %struct.bufferevent, ptr, i8, i16, i16, i16, i32, i32, %struct.event_callback, i32, i32, ptr, i64, i64, ptr, %union.anon.7, ptr }
%struct.bufferevent = type { ptr, ptr, %struct.event, %struct.event, ptr, ptr, %struct.event_watermark, %struct.event_watermark, ptr, ptr, ptr, ptr, %struct.timeval, %struct.timeval, i16 }
%struct.event = type { %struct.event_callback, %union.anon.0, i32, i16, i16, ptr, %union.anon.2, %struct.timeval }
%union.anon.0 = type { %struct.anon.1 }
%struct.anon.1 = type { ptr, ptr }
%union.anon.2 = type { %struct.anon.3 }
%struct.anon.3 = type { %struct.anon.4, %struct.timeval }
%struct.anon.4 = type { ptr, ptr }
%struct.event_watermark = type { i64, i64 }
%struct.event_callback = type { %struct.anon, i16, i8, i8, %union.anon, ptr }
%struct.anon = type { ptr, ptr }
%union.anon = type { ptr }
%union.anon.7 = type { %struct.sockaddr_in6 }
%struct.sockaddr_in6 = type { i16, i16, i32, %struct.in6_addr, i32 }
%struct.in6_addr = type { %union.anon.8 }
%union.anon.8 = type { [4 x i32] }
%struct.bufferevent_rate_limit = type { %struct.anon.9, ptr, %struct.ev_token_bucket, ptr, %struct.event }
%struct.anon.9 = type { ptr, ptr }

@evthread_lock_fns_ = external global %struct.evthread_lock_callbacks, align 8

; Function Attrs: nounwind uwtable
define hidden i32 @ev_token_bucket_update_(ptr noundef %0, ptr noundef %1, i32 noundef %2) #0 {
  %4 = alloca i32, align 4
  %5 = alloca ptr, align 8
  %6 = alloca ptr, align 8
  %7 = alloca i32, align 4
  %8 = alloca i32, align 4
  %9 = alloca i32, align 4
  store ptr %0, ptr %5, align 8
  store ptr %1, ptr %6, align 8
  store i32 %2, ptr %7, align 4
  call void @llvm.lifetime.start.p0(i64 4, ptr %8) #5
  %10 = load i32, ptr %7, align 4
  %11 = load ptr, ptr %5, align 8
  %12 = getelementptr inbounds nuw %struct.ev_token_bucket, ptr %11, i32 0, i32 2
  %13 = load i32, ptr %12, align 8
  %14 = sub i32 %10, %13
  store i32 %14, ptr %8, align 4
  %15 = load i32, ptr %8, align 4
  %16 = icmp eq i32 %15, 0
  br i1 %16, label %20, label %17

17:                                               ; preds = %3
  %18 = load i32, ptr %8, align 4
  %19 = icmp ugt i32 %18, 2147483647
  br i1 %19, label %20, label %21

20:                                               ; preds = %17, %3
  store i32 0, ptr %4, align 4
  store i32 1, ptr %9, align 4
  br label %89

21:                                               ; preds = %17
  %22 = load ptr, ptr %6, align 8
  %23 = getelementptr inbounds nuw %struct.ev_token_bucket_cfg, ptr %22, i32 0, i32 1
  %24 = load i64, ptr %23, align 8
  %25 = load ptr, ptr %5, align 8
  %26 = getelementptr inbounds nuw %struct.ev_token_bucket, ptr %25, i32 0, i32 0
  %27 = load i64, ptr %26, align 8
  %28 = sub i64 %24, %27
  %29 = load i32, ptr %8, align 4
  %30 = zext i32 %29 to i64
  %31 = udiv i64 %28, %30
  %32 = load ptr, ptr %6, align 8
  %33 = getelementptr inbounds nuw %struct.ev_token_bucket_cfg, ptr %32, i32 0, i32 0
  %34 = load i64, ptr %33, align 8
  %35 = icmp ult i64 %31, %34
  br i1 %35, label %36, label %42

36:                                               ; preds = %21
  %37 = load ptr, ptr %6, align 8
  %38 = getelementptr inbounds nuw %struct.ev_token_bucket_cfg, ptr %37, i32 0, i32 1
  %39 = load i64, ptr %38, align 8
  %40 = load ptr, ptr %5, align 8
  %41 = getelementptr inbounds nuw %struct.ev_token_bucket, ptr %40, i32 0, i32 0
  store i64 %39, ptr %41, align 8
  br label %53

42:                                               ; preds = %21
  %43 = load i32, ptr %8, align 4
  %44 = zext i32 %43 to i64
  %45 = load ptr, ptr %6, align 8
  %46 = getelementptr inbounds nuw %struct.ev_token_bucket_cfg, ptr %45, i32 0, i32 0
  %47 = load i64, ptr %46, align 8
  %48 = mul i64 %44, %47
  %49 = load ptr, ptr %5, align 8
  %50 = getelementptr inbounds nuw %struct.ev_token_bucket, ptr %49, i32 0, i32 0
  %51 = load i64, ptr %50, align 8
  %52 = add i64 %51, %48
  store i64 %52, ptr %50, align 8
  br label %53

53:                                               ; preds = %42, %36
  %54 = load ptr, ptr %6, align 8
  %55 = getelementptr inbounds nuw %struct.ev_token_bucket_cfg, ptr %54, i32 0, i32 3
  %56 = load i64, ptr %55, align 8
  %57 = load ptr, ptr %5, align 8
  %58 = getelementptr inbounds nuw %struct.ev_token_bucket, ptr %57, i32 0, i32 1
  %59 = load i64, ptr %58, align 8
  %60 = sub i64 %56, %59
  %61 = load i32, ptr %8, align 4
  %62 = zext i32 %61 to i64
  %63 = udiv i64 %60, %62
  %64 = load ptr, ptr %6, align 8
  %65 = getelementptr inbounds nuw %struct.ev_token_bucket_cfg, ptr %64, i32 0, i32 2
  %66 = load i64, ptr %65, align 8
  %67 = icmp ult i64 %63, %66
  br i1 %67, label %68, label %74

68:                                               ; preds = %53
  %69 = load ptr, ptr %6, align 8
  %70 = getelementptr inbounds nuw %struct.ev_token_bucket_cfg, ptr %69, i32 0, i32 3
  %71 = load i64, ptr %70, align 8
  %72 = load ptr, ptr %5, align 8
  %73 = getelementptr inbounds nuw %struct.ev_token_bucket, ptr %72, i32 0, i32 1
  store i64 %71, ptr %73, align 8
  br label %85

74:                                               ; preds = %53
  %75 = load i32, ptr %8, align 4
  %76 = zext i32 %75 to i64
  %77 = load ptr, ptr %6, align 8
  %78 = getelementptr inbounds nuw %struct.ev_token_bucket_cfg, ptr %77, i32 0, i32 2
  %79 = load i64, ptr %78, align 8
  %80 = mul i64 %76, %79
  %81 = load ptr, ptr %5, align 8
  %82 = getelementptr inbounds nuw %struct.ev_token_bucket, ptr %81, i32 0, i32 1
  %83 = load i64, ptr %82, align 8
  %84 = add i64 %83, %80
  store i64 %84, ptr %82, align 8
  br label %85

85:                                               ; preds = %74, %68
  %86 = load i32, ptr %7, align 4
  %87 = load ptr, ptr %5, align 8
  %88 = getelementptr inbounds nuw %struct.ev_token_bucket, ptr %87, i32 0, i32 2
  store i32 %86, ptr %88, align 8
  store i32 1, ptr %4, align 4
  store i32 1, ptr %9, align 4
  br label %89

89:                                               ; preds = %85, %20
  call void @llvm.lifetime.end.p0(i64 4, ptr %8) #5
  %90 = load i32, ptr %4, align 4
  ret i32 %90
}

; Function Attrs: nounwind uwtable
define hidden i32 @ev_token_bucket_get_tick_(ptr noundef %0, ptr noundef %1) #0 {
  %3 = alloca ptr, align 8
  %4 = alloca ptr, align 8
  %5 = alloca i64, align 8
  store ptr %0, ptr %3, align 8
  store ptr %1, ptr %4, align 8
  call void @llvm.lifetime.start.p0(i64 8, ptr %5) #5
  %6 = load ptr, ptr %3, align 8
  %7 = getelementptr inbounds nuw %struct.timeval, ptr %6, i32 0, i32 0
  %8 = load i64, ptr %7, align 8
  %9 = mul i64 %8, 1000
  %10 = load ptr, ptr %3, align 8
  %11 = getelementptr inbounds nuw %struct.timeval, ptr %10, i32 0, i32 1
  %12 = load i64, ptr %11, align 8
  %13 = sdiv i64 %12, 1000
  %14 = add i64 %9, %13
  store i64 %14, ptr %5, align 8
  %15 = load i64, ptr %5, align 8
  %16 = load ptr, ptr %4, align 8
  %17 = getelementptr inbounds nuw %struct.ev_token_bucket_cfg, ptr %16, i32 0, i32 5
  %18 = load i32, ptr %17, align 8
  %19 = zext i32 %18 to i64
  %20 = udiv i64 %15, %19
  %21 = trunc i64 %20 to i32
  call void @llvm.lifetime.end.p0(i64 8, ptr %5) #5
  ret i32 %21
}

; Function Attrs: inlinehint nounwind uwtable
define internal void @bufferevent_update_buckets(ptr noundef %0) #4 {
  %2 = alloca ptr, align 8
  %3 = alloca %struct.timeval, align 8
  %4 = alloca i32, align 4
  store ptr %0, ptr %2, align 8
  call void @llvm.lifetime.start.p0(i64 16, ptr %3) #5
  call void @llvm.lifetime.start.p0(i64 4, ptr %4) #5
  %5 = load ptr, ptr %2, align 8
  %6 = getelementptr inbounds nuw %struct.bufferevent_private, ptr %5, i32 0, i32 0
  %7 = getelementptr inbounds nuw %struct.bufferevent, ptr %6, i32 0, i32 0
  %8 = load ptr, ptr %7, align 8
  %9 = call i32 @event_base_gettimeofday_cached(ptr noundef %8, ptr noundef %3)
  %10 = load ptr, ptr %2, align 8
  %11 = getelementptr inbounds nuw %struct.bufferevent_private, ptr %10, i32 0, i32 14
  %12 = load ptr, ptr %11, align 8
  %13 = getelementptr inbounds nuw %struct.bufferevent_rate_limit, ptr %12, i32 0, i32 3
  %14 = load ptr, ptr %13, align 8
  %15 = call i32 @ev_token_bucket_get_tick_(ptr noundef %3, ptr noundef %14)
  store i32 %15, ptr %4, align 4
  %16 = load i32, ptr %4, align 4
  %17 = load ptr, ptr %2, align 8
  %18 = getelementptr inbounds nuw %struct.bufferevent_private, ptr %17, i32 0, i32 14
  %19 = load ptr, ptr %18, align 8
  %20 = getelementptr inbounds nuw %struct.bufferevent_rate_limit, ptr %19, i32 0, i32 2
  %21 = getelementptr inbounds nuw %struct.ev_token_bucket, ptr %20, i32 0, i32 2
  %22 = load i32, ptr %21, align 8
  %23 = icmp ne i32 %16, %22
  br i1 %23, label %24, label %36

24:                                               ; preds = %1
  %25 = load ptr, ptr %2, align 8
  %26 = getelementptr inbounds nuw %struct.bufferevent_private, ptr %25, i32 0, i32 14
  %27 = load ptr, ptr %26, align 8
  %28 = getelementptr inbounds nuw %struct.bufferevent_rate_limit, ptr %27, i32 0, i32 2
  %29 = load ptr, ptr %2, align 8
  %30 = getelementptr inbounds nuw %struct.bufferevent_private, ptr %29, i32 0, i32 14
  %31 = load ptr, ptr %30, align 8
  %32 = getelementptr inbounds nuw %struct.bufferevent_rate_limit, ptr %31, i32 0, i32 3
  %33 = load ptr, ptr %32, align 8
  %34 = load i32, ptr %4, align 4
  %35 = call i32 @ev_token_bucket_update_(ptr noundef %28, ptr noundef %33, i32 noundef %34)
  br label %36

36:                                               ; preds = %24, %1
  call void @llvm.lifetime.end.p0(i64 4, ptr %4) #5
  call void @llvm.lifetime.end.p0(i64 16, ptr %3) #5
  ret void
}

; Function Attrs: nounwind uwtable
define i64 @bufferevent_get_read_limit(ptr noundef %0) #0 {
  %2 = alloca ptr, align 8
  %3 = alloca i64, align 8
  %4 = alloca ptr, align 8
  %5 = alloca ptr, align 8
  %6 = alloca ptr, align 8
  store ptr %0, ptr %2, align 8
  call void @llvm.lifetime.start.p0(i64 8, ptr %3) #5
  call void @llvm.lifetime.start.p0(i64 8, ptr %4) #5
  br label %7

7:                                                ; preds = %1
  call void @llvm.lifetime.start.p0(i64 8, ptr %5) #5
  %8 = load ptr, ptr %2, align 8
  %9 = getelementptr inbounds i8, ptr %8, i64 0
  store ptr %9, ptr %5, align 8
  br label %10

10:                                               ; preds = %7
  %11 = load ptr, ptr %5, align 8
  %12 = getelementptr inbounds nuw %struct.bufferevent_private, ptr %11, i32 0, i32 11
  %13 = load ptr, ptr %12, align 8
  %14 = icmp ne ptr %13, null
  br i1 %14, label %15, label %21

15:                                               ; preds = %10
  %16 = load ptr, ptr getelementptr inbounds nuw (%struct.evthread_lock_callbacks, ptr @evthread_lock_fns_, i32 0, i32 4), align 8
  %17 = load ptr, ptr %5, align 8
  %18 = getelementptr inbounds nuw %struct.bufferevent_private, ptr %17, i32 0, i32 11
  %19 = load ptr, ptr %18, align 8
  %20 = call i32 %16(i32 noundef 0, ptr noundef %19)
  br label %21

21:                                               ; preds = %15, %10
  br label %22

22:                                               ; preds = %21
  br label %23

23:                                               ; preds = %22
  call void @llvm.lifetime.end.p0(i64 8, ptr %5) #5
  br label %24

24:                                               ; preds = %23
  br label %25

25:                                               ; preds = %24
  %26 = load ptr, ptr %2, align 8
  %27 = getelementptr inbounds i8, ptr %26, i64 0
  store ptr %27, ptr %4, align 8
  %28 = load ptr, ptr %4, align 8
  %29 = getelementptr inbounds nuw %struct.bufferevent_private, ptr %28, i32 0, i32 14
  %30 = load ptr, ptr %29, align 8
  %31 = icmp ne ptr %30, null
  br i1 %31, label %32, label %47

32:                                               ; preds = %25
  %33 = load ptr, ptr %4, align 8
  %34 = getelementptr inbounds nuw %struct.bufferevent_private, ptr %33, i32 0, i32 14
  %35 = load ptr, ptr %34, align 8
  %36 = getelementptr inbounds nuw %struct.bufferevent_rate_limit, ptr %35, i32 0, i32 3
  %37 = load ptr, ptr %36, align 8
  %38 = icmp ne ptr %37, null
  br i1 %38, label %39, label %47

39:                                               ; preds = %32
  %40 = load ptr, ptr %4, align 8
  call void @bufferevent_update_buckets(ptr noundef %40)
  %41 = load ptr, ptr %4, align 8
  %42 = getelementptr inbounds nuw %struct.bufferevent_private, ptr %41, i32 0, i32 14
  %43 = load ptr, ptr %42, align 8
  %44 = getelementptr inbounds nuw %struct.bufferevent_rate_limit, ptr %43, i32 0, i32 2
  %45 = getelementptr inbounds nuw %struct.ev_token_bucket, ptr %44, i32 0, i32 0
  %46 = load i64, ptr %45, align 8
  store i64 %46, ptr %3, align 8
  br label %48

47:                                               ; preds = %32, %25
  store i64 9223372036854775807, ptr %3, align 8
  br label %48

48:                                               ; preds = %47, %39
  br label %49

49:                                               ; preds = %48
  call void @llvm.lifetime.start.p0(i64 8, ptr %6) #5
  %50 = load ptr, ptr %2, align 8
  %51 = getelementptr inbounds i8, ptr %50, i64 0
  store ptr %51, ptr %6, align 8
  br label %52

52:                                               ; preds = %49
  %53 = load ptr, ptr %6, align 8
  %54 = getelementptr inbounds nuw %struct.bufferevent_private, ptr %53, i32 0, i32 11
  %55 = load ptr, ptr %54, align 8
  %56 = icmp ne ptr %55, null
  br i1 %56, label %57, label %63

57:                                               ; preds = %52
  %58 = load ptr, ptr getelementptr inbounds nuw (%struct.evthread_lock_callbacks, ptr @evthread_lock_fns_, i32 0, i32 5), align 8
  %59 = load ptr, ptr %6, align 8
  %60 = getelementptr inbounds nuw %struct.bufferevent_private, ptr %59, i32 0, i32 11
  %61 = load ptr, ptr %60, align 8
  %62 = call i32 %58(i32 noundef 0, ptr noundef %61)
  br label %63

63:                                               ; preds = %57, %52
  br label %64

64:                                               ; preds = %63
  br label %65

65:                                               ; preds = %64
  call void @llvm.lifetime.end.p0(i64 8, ptr %6) #5
  br label %66

66:                                               ; preds = %65
  br label %67

67:                                               ; preds = %66
  %68 = load i64, ptr %3, align 8
  call void @llvm.lifetime.end.p0(i64 8, ptr %4) #5
  call void @llvm.lifetime.end.p0(i64 8, ptr %3) #5
  ret i64 %68
}